; Function Attrs: nounwind uwtable
define range(i32 -2, 2) i32 @ossl_sha1_ctrl(ptr noundef %0, i32 noundef %1, i32 noundef %2, ptr noundef %3) local_unnamed_addr #0 {
  %5 = alloca [40 x i8], align 16
  %6 = alloca [20 x i8], align 16
  call void @llvm.lifetime.start.p0(i64 40, ptr nonnull %5) #6
  call void @llvm.lifetime.start.p0(i64 20, ptr nonnull %6) #6
  %.not = icmp eq i32 %1, 29
  br i1 %.not, label %7, label %88

7:                                                ; preds = %4
  %8 = icmp ne ptr %0, null
  %.not16 = icmp eq i32 %2, 48
  %or.cond = and i1 %8, %.not16
  br i1 %or.cond, label %9, label %88

9:                                                ; preds = %7
  %10 = getelementptr inbounds nuw i8, ptr %0, i64 20
  %11 = load i32, ptr %10, align 4, !tbaa !3
  %12 = add i32 %11, 384
  %13 = icmp ugt i32 %11, -385
  %14 = getelementptr inbounds nuw i8, ptr %0, i64 24
  %15 = load i32, ptr %14, align 4, !tbaa !8
  %16 = zext i1 %13 to i32
  %17 = add i32 %15, %16
  store i32 %17, ptr %14, align 4, !tbaa !8
  store i32 %12, ptr %10, align 4, !tbaa !3
  %18 = getelementptr inbounds nuw i8, ptr %0, i64 92
  %19 = load i32, ptr %18, align 4, !tbaa !9
  %20 = zext i32 %19 to i64
  %.not.i = icmp eq i32 %19, 0
  br i1 %.not.i, label %.thread52, label %21

21:                                               ; preds = %9
  %22 = getelementptr inbounds nuw i8, ptr %0, i64 28
  %23 = icmp ugt i32 %19, 15
  %24 = getelementptr inbounds nuw i8, ptr %22, i64 %20
  br i1 %23, label %28, label %25

25:                                               ; preds = %21
  tail call void @llvm.memcpy.p0.p0.i64(ptr noundef nonnull align 1 dereferenceable(48) %24, ptr noundef nonnull align 1 dereferenceable(48) %3, i64 48, i1 false)
  %26 = load i32, ptr %18, align 4, !tbaa !9
  %27 = add i32 %26, 48
  store i32 %27, ptr %18, align 4, !tbaa !9
  br label %SHA1_Update.exit

28:                                               ; preds = %21
  %29 = sub nsw i64 64, %20
  tail call void @llvm.memcpy.p0.p0.i64(ptr nonnull align 1 %24, ptr align 1 %3, i64 %29, i1 false)
  tail call void @sha1_block_data_order(ptr noundef nonnull %0, ptr noundef nonnull %22, i64 noundef 1) #6
  %30 = getelementptr inbounds nuw i8, ptr %3, i64 %29
  %31 = add nsw i64 %20, -16
  tail call void @llvm.memset.p0.i64(ptr noundef nonnull align 1 dereferenceable(68) %22, i8 0, i64 68, i1 false)
  %.not58.i = icmp ult i64 %31, 64
  br i1 %.not58.i, label %37, label %32

32:                                               ; preds = %28
  %33 = lshr i64 %31, 6
  tail call void @sha1_block_data_order(ptr noundef nonnull %0, ptr noundef %30, i64 noundef %33) #6
  %34 = and i64 %31, -64
  %35 = getelementptr inbounds nuw i8, ptr %30, i64 %34
  %36 = and i64 %31, 63
  br label %37

37:                                               ; preds = %32, %28
  %.155.i = phi i64 [ %36, %32 ], [ %31, %28 ]
  %.1.i = phi ptr [ %35, %32 ], [ %30, %28 ]
  %.not59.i = icmp eq i64 %.155.i, 0
  br i1 %.not59.i, label %SHA1_Update.exit, label %.thread52

.thread52:                                        ; preds = %9, %37
  %.1.i57 = phi ptr [ %.1.i, %37 ], [ %3, %9 ]
  %.155.i56 = phi i64 [ %.155.i, %37 ], [ 48, %9 ]
  %38 = getelementptr inbounds nuw i8, ptr %0, i64 28
  %39 = trunc nuw i64 %.155.i56 to i32
  store i32 %39, ptr %18, align 4, !tbaa !9
  tail call void @llvm.memcpy.p0.p0.i64(ptr noundef nonnull align 1 dereferenceable(1) %38, ptr noundef nonnull align 1 dereferenceable(1) %.1.i57, i64 %.155.i56, i1 false)
  br label %SHA1_Update.exit

SHA1_Update.exit:                                 ; preds = %25, %37, %.thread52
  call void @llvm.memset.p0.i64(ptr noundef nonnull align 16 dereferenceable(40) %5, i8 54, i64 40, i1 false)
  %40 = load i32, ptr %10, align 4, !tbaa !3
  %41 = add i32 %40, 320
  %42 = icmp ugt i32 %40, -321
  %43 = load i32, ptr %14, align 4, !tbaa !8
  %44 = zext i1 %42 to i32
  %45 = add i32 %43, %44
  store i32 %45, ptr %14, align 4, !tbaa !8
  store i32 %41, ptr %10, align 4, !tbaa !3
  %46 = load i32, ptr %18, align 4, !tbaa !9
  %47 = zext i32 %46 to i64
  %.not.i17 = icmp eq i32 %46, 0
  br i1 %.not.i17, label %.thread62, label %48

48:                                               ; preds = %SHA1_Update.exit
  %49 = getelementptr inbounds nuw i8, ptr %0, i64 28
  %50 = icmp ugt i32 %46, 23
  %51 = getelementptr inbounds nuw i8, ptr %49, i64 %47
  br i1 %50, label %55, label %52

52:                                               ; preds = %48
  tail call void @llvm.memset.p0.i64(ptr noundef nonnull align 1 dereferenceable(40) %51, i8 54, i64 40, i1 false)
  %53 = load i32, ptr %18, align 4, !tbaa !9
  %54 = add i32 %53, 40
  store i32 %54, ptr %18, align 4, !tbaa !9
  br label %SHA1_Update.exit48

55:                                               ; preds = %48
  %56 = sub nsw i64 64, %47
  call void @llvm.memcpy.p0.p0.i64(ptr nonnull align 1 %51, ptr nonnull align 16 %5, i64 %56, i1 false)
  tail call void @sha1_block_data_order(ptr noundef nonnull %0, ptr noundef nonnull %49, i64 noundef 1) #6
  %57 = getelementptr inbounds nuw i8, ptr %5, i64 %56
  %58 = add nsw i64 %47, -24
  tail call void @llvm.memset.p0.i64(ptr noundef nonnull align 1 dereferenceable(68) %49, i8 0, i64 68, i1 false)
  %.not58.i20 = icmp ult i64 %58, 64
  br i1 %.not58.i20, label %64, label %59

59:                                               ; preds = %55
  %60 = lshr i64 %58, 6
  call void @sha1_block_data_order(ptr noundef nonnull %0, ptr noundef nonnull %57, i64 noundef %60) #6
  %61 = and i64 %58, -64
  %62 = getelementptr inbounds nuw i8, ptr %57, i64 %61
  %63 = and i64 %58, 63
  br label %64

64:                                               ; preds = %59, %55
  %.155.i21 = phi i64 [ %63, %59 ], [ %58, %55 ]
  %.1.i22 = phi ptr [ %62, %59 ], [ %57, %55 ]
  %.not59.i23 = icmp eq i64 %.155.i21, 0
  br i1 %.not59.i23, label %SHA1_Update.exit48, label %.thread62

.thread62:                                        ; preds = %SHA1_Update.exit, %64
  %.1.i2267 = phi ptr [ %.1.i22, %64 ], [ %5, %SHA1_Update.exit ]
  %.155.i2166 = phi i64 [ %.155.i21, %64 ], [ 40, %SHA1_Update.exit ]
  %65 = getelementptr inbounds nuw i8, ptr %0, i64 28
  %66 = trunc nuw i64 %.155.i2166 to i32
  store i32 %66, ptr %18, align 4, !tbaa !9
  call void @llvm.memcpy.p0.p0.i64(ptr noundef nonnull align 1 dereferenceable(1) %65, ptr noundef nonnull align 1 dereferenceable(1) %.1.i2267, i64 %.155.i2166, i1 false)
  br label %SHA1_Update.exit48

SHA1_Update.exit48:                               ; preds = %52, %64, %.thread62
  %67 = call i32 @SHA1_Final(ptr noundef nonnull %6, ptr noundef nonnull %0)
  %68 = getelementptr inbounds nuw i8, ptr %0, i64 28
  call void @llvm.memset.p0.i64(ptr noundef nonnull align 4 dereferenceable(96) %68, i8 0, i64 64, i1 false)
  store i32 1732584193, ptr %0, align 4, !tbaa !11
  %69 = getelementptr inbounds nuw i8, ptr %0, i64 4
  store i32 -271733879, ptr %69, align 4, !tbaa !12
  %70 = getelementptr inbounds nuw i8, ptr %0, i64 8
  store i32 -1732584194, ptr %70, align 4, !tbaa !13
  %71 = getelementptr inbounds nuw i8, ptr %0, i64 12
  store i32 271733878, ptr %71, align 4, !tbaa !14
  %72 = getelementptr inbounds nuw i8, ptr %0, i64 16
  store i32 -1009589776, ptr %72, align 4, !tbaa !15
  store i32 0, ptr %14, align 4, !tbaa !8
  store i32 384, ptr %10, align 4, !tbaa !3
  %73 = getelementptr inbounds nuw i8, ptr %0, i64 28
  store i32 48, ptr %18, align 4, !tbaa !9
  call void @llvm.memcpy.p0.p0.i64(ptr noundef nonnull align 1 dereferenceable(48) %73, ptr noundef nonnull align 1 dereferenceable(48) %3, i64 48, i1 false)
  call void @llvm.memset.p0.i64(ptr noundef nonnull align 16 dereferenceable(40) %5, i8 92, i64 40, i1 false)
  store i32 0, ptr %14, align 4, !tbaa !8
  store i32 704, ptr %10, align 4, !tbaa !3
  %74 = getelementptr inbounds nuw i8, ptr %0, i64 28
  %75 = getelementptr inbounds nuw i8, ptr %0, i64 76
  call void @llvm.memset.p0.i64(ptr noundef nonnull align 1 dereferenceable(16) %75, i8 92, i64 16, i1 false)
  call void @sha1_block_data_order(ptr noundef nonnull %0, ptr noundef nonnull %74, i64 noundef 1) #6
  %76 = getelementptr inbounds nuw i8, ptr %5, i64 16
  %77 = getelementptr inbounds nuw i8, ptr %0, i64 72
  call void @llvm.memset.p0.i64(ptr noundef nonnull align 1 dereferenceable(68) %77, i8 0, i64 20, i1 false)
  %78 = getelementptr inbounds nuw i8, ptr %0, i64 28
  store i32 24, ptr %18, align 4, !tbaa !9
  call void @llvm.memcpy.p0.p0.i64(ptr noundef nonnull align 1 dereferenceable(24) %78, ptr noundef nonnull align 16 dereferenceable(24) %76, i64 24, i1 false)
  %79 = load i32, ptr %10, align 4, !tbaa !3
  %80 = add i32 %79, 160
  %81 = icmp ugt i32 %79, -161
  %82 = load i32, ptr %14, align 4, !tbaa !8
  %83 = zext i1 %81 to i32
  %84 = add i32 %82, %83
  store i32 %84, ptr %14, align 4, !tbaa !8
  store i32 %80, ptr %10, align 4, !tbaa !3
  %85 = getelementptr inbounds nuw i8, ptr %0, i64 52
  call void @llvm.memcpy.p0.p0.i64(ptr noundef nonnull align 1 dereferenceable(20) %85, ptr noundef nonnull align 16 dereferenceable(20) %6, i64 20, i1 false)
  %86 = load i32, ptr %18, align 4, !tbaa !9
  %87 = add i32 %86, 20
  store i32 %87, ptr %18, align 4, !tbaa !9
  call void @OPENSSL_cleanse(ptr noundef nonnull %6, i64 noundef 20) #6
  br label %88

88:                                               ; preds = %7, %4, %SHA1_Update.exit48
  %.0 = phi i32 [ 1, %SHA1_Update.exit48 ], [ -2, %4 ], [ 0, %7 ]
  call void @llvm.lifetime.end.p0(i64 20, ptr nonnull %6) #6
  call void @llvm.lifetime.end.p0(i64 40, ptr nonnull %5) #6
  ret i32 %.0
}